(lp1
VThis is a very long title to see if the export is working and that is is devided into many lines and is formated the way it should be done. I do not know what more to write, but I write a bit more
p2
a.